target datalayout = "e-m:e-p270:32:32-p271:32:32-p272:64:64-i64:64-i128:128-f80:128-n8:16:32:64-S128"
target triple = "x86_64-pc-linux-gnu"

%"class.Stockfish::Position" = type <{ [64 x i32], [8 x i64], [2 x i64], [16 x i32], [64 x i32], [16 x i32], [16 x i64], ptr, i32, i32, i8, [7 x i8] }>
%"struct.Stockfish::StateInfo" = type { i64, i64, [2 x i32], i32, i32, i32, i32, i64, i64, ptr, [2 x i64], [2 x i64], [8 x i64], i32, i32, [24 x i8], %"struct.Stockfish::Eval::NNUE::Accumulator", %"struct.Stockfish::Eval::NNUE::Accumulator.16", %"struct.Stockfish::DirtyPiece", [24 x i8] }
%"struct.Stockfish::Eval::NNUE::Accumulator" = type { [2 x [2560 x i16]], [2 x [8 x i32]], [2 x i8], [2 x i8], [60 x i8] }
%"struct.Stockfish::Eval::NNUE::Accumulator.16" = type { [2 x [128 x i16]], [2 x [8 x i32]], [2 x i8], [2 x i8], [60 x i8] }
%"struct.Stockfish::DirtyPiece" = type { i32, [3 x i32], [3 x i32], [3 x i32] }

; Function Attrs: mustprogress nounwind uwtable
define linkonce_odr dso_local noundef i32 @_ZN9Stockfish10make_pieceENS_5ColorENS_9PieceTypeE(i32 noundef %0, i32 noundef %1) #4 comdat {
  %3 = alloca i32, align 4
  %4 = alloca i32, align 4
  store i32 %0, ptr %3, align 4
  store i32 %1, ptr %4, align 4
  %5 = load i32, ptr %3, align 4
  %6 = shl i32 %5, 3
  %7 = load i32, ptr %4, align 4
  %8 = add nsw i32 %6, %7
  ret i32 %8
}

; Function Attrs: mustprogress nounwind uwtable
define linkonce_odr dso_local noundef i32 @_ZNK9Stockfish8Position17non_pawn_materialENS_5ColorE(ptr noundef nonnull align 8 dereferenceable(865) %0, i32 noundef %1) #4 comdat align 2 {
  %3 = alloca ptr, align 8
  %4 = alloca i32, align 4
  store ptr %0, ptr %3, align 8
  store i32 %1, ptr %4, align 4
  %5 = load ptr, ptr %3, align 8
  %6 = getelementptr inbounds %"class.Stockfish::Position", ptr %5, i32 0, i32 7
  %7 = load ptr, ptr %6, align 8
  %8 = getelementptr inbounds %"struct.Stockfish::StateInfo", ptr %7, i32 0, i32 2
  %9 = load i32, ptr %4, align 4
  %10 = zext i32 %9 to i64
  %11 = getelementptr inbounds [2 x i32], ptr %8, i64 0, i64 %10
  %12 = load i32, ptr %11, align 4
  ret i32 %12
}

; Function Attrs: mustprogress nounwind uwtable
define linkonce_odr dso_local noundef i32 @_ZN9StockfishcoENS_5ColorE(i32 noundef %0) #4 comdat {
  %2 = alloca i32, align 4
  store i32 %0, ptr %2, align 4
  %3 = load i32, ptr %2, align 4
  %4 = xor i32 %3, 1
  ret i32 %4
}

; Function Attrs: mustprogress nounwind uwtable
define linkonce_odr dso_local noundef i32 @_ZNK9Stockfish8Position5countILNS_9PieceTypeE1EEEiNS_5ColorE(ptr noundef nonnull align 8 dereferenceable(865) %0, i32 noundef %1) #4 comdat align 2 {
  %3 = alloca ptr, align 8
  %4 = alloca i32, align 4
  store ptr %0, ptr %3, align 8
  store i32 %1, ptr %4, align 4
  %5 = load ptr, ptr %3, align 8
  %6 = getelementptr inbounds %"class.Stockfish::Position", ptr %5, i32 0, i32 3
  %7 = load i32, ptr %4, align 4
  %8 = call noundef i32 @_ZN9Stockfish10make_pieceENS_5ColorENS_9PieceTypeE(i32 noundef %7, i32 noundef 1)
  %9 = zext i32 %8 to i64
  %10 = getelementptr inbounds [16 x i32], ptr %6, i64 0, i64 %9
  %11 = load i32, ptr %10, align 4
  ret i32 %11
}

; Function Attrs: mustprogress nounwind uwtable
define dso_local noundef i32 @_ZN9Stockfish4Eval11simple_evalERKNS_8PositionENS_5ColorE(ptr noundef nonnull align 8 dereferenceable(865) %0, i32 noundef %1) #4 {
  %3 = alloca ptr, align 8
  %4 = alloca i32, align 4
  store ptr %0, ptr %3, align 8
  store i32 %1, ptr %4, align 4
  %5 = load ptr, ptr %3, align 8
  %6 = load i32, ptr %4, align 4
  %7 = call noundef i32 @_ZNK9Stockfish8Position5countILNS_9PieceTypeE1EEEiNS_5ColorE(ptr noundef nonnull align 8 dereferenceable(865) %5, i32 noundef %6)
  %8 = load ptr, ptr %3, align 8
  %9 = load i32, ptr %4, align 4
  %10 = call noundef i32 @_ZN9StockfishcoENS_5ColorE(i32 noundef %9)
  %11 = call noundef i32 @_ZNK9Stockfish8Position5countILNS_9PieceTypeE1EEEiNS_5ColorE(ptr noundef nonnull align 8 dereferenceable(865) %8, i32 noundef %10)
  %12 = sub nsw i32 %7, %11
  %13 = mul nsw i32 208, %12
  %14 = load ptr, ptr %3, align 8
  %15 = load i32, ptr %4, align 4
  %16 = call noundef i32 @_ZNK9Stockfish8Position17non_pawn_materialENS_5ColorE(ptr noundef nonnull align 8 dereferenceable(865) %14, i32 noundef %15)
  %17 = load ptr, ptr %3, align 8
  %18 = load i32, ptr %4, align 4
  %19 = call noundef i32 @_ZN9StockfishcoENS_5ColorE(i32 noundef %18)
  %20 = call noundef i32 @_ZNK9Stockfish8Position17non_pawn_materialENS_5ColorE(ptr noundef nonnull align 8 dereferenceable(865) %17, i32 noundef %19)
  %21 = sub nsw i32 %16, %20
  %22 = add nsw i32 %13, %21
  ret i32 %22
}