; Function Attrs: mustprogress nofree norecurse nosync nounwind willreturn memory(read, inaccessiblemem: none) uwtable
define dso_local noundef i32 @_ZN9Stockfish4Eval11simple_evalERKNS_8PositionENS_5ColorE(ptr nocapture noundef nonnull readonly align 8 dereferenceable(865) %0, i32 noundef %1) local_unnamed_addr #5 {
  %3 = getelementptr inbounds i8, ptr %0, i64 336
  %4 = shl i32 %1, 3
  %5 = or disjoint i32 %4, 1
  %6 = zext i32 %5 to i64
  %7 = getelementptr inbounds [16 x i32], ptr %3, i64 0, i64 %6
  %8 = load i32, ptr %7, align 4
  %9 = xor i32 %1, 1
  %10 = shl i32 %9, 3
  %11 = or disjoint i32 %10, 1
  %12 = zext i32 %11 to i64
  %13 = getelementptr inbounds [16 x i32], ptr %3, i64 0, i64 %12
  %14 = load i32, ptr %13, align 4
  %15 = sub nsw i32 %8, %14
  %16 = mul nsw i32 %15, 208
  %17 = getelementptr inbounds i8, ptr %0, i64 848
  %18 = load ptr, ptr %17, align 8
  %19 = getelementptr inbounds i8, ptr %18, i64 16
  %20 = zext i32 %1 to i64
  %21 = getelementptr inbounds [2 x i32], ptr %19, i64 0, i64 %20
  %22 = load i32, ptr %21, align 4
  %23 = zext i32 %9 to i64
  %24 = getelementptr inbounds [2 x i32], ptr %19, i64 0, i64 %23
  %25 = load i32, ptr %24, align 4
  %26 = add i32 %16, %22
  %27 = sub i32 %26, %25
  ret i32 %27
}